; Function Attrs: mustprogress uwtable
define void @_ZN16remote_bitbang_t6acceptEv(ptr noundef nonnull align 8 captures(none) dereferenceable(131104) initializes((12, 16)) %0) local_unnamed_addr #3 align 2 {
  %2 = getelementptr inbounds nuw i8, ptr %0, i64 8
  %3 = load i32, ptr %2, align 8, !tbaa !11
  %4 = tail call i32 @accept(i32 noundef %3, ptr noundef null, ptr noundef null)
  %5 = getelementptr inbounds nuw i8, ptr %0, i64 12
  store i32 %4, ptr %5, align 4, !tbaa !12
  %6 = icmp eq i32 %4, -1
  br i1 %6, label %7, label %16

7:                                                ; preds = %1
  %8 = tail call ptr @__errno_location() #13
  %9 = load i32, ptr %8, align 4, !tbaa !15
  %10 = icmp eq i32 %9, 11
  br i1 %10, label %18, label %11

11:                                               ; preds = %7
  %12 = load ptr, ptr @stderr, align 8, !tbaa !13
  %13 = tail call ptr @strerror(i32 noundef %9) #12
  %14 = load i32, ptr %8, align 4, !tbaa !15
  %15 = tail call i32 (ptr, ptr, ...) @fprintf(ptr noundef %12, ptr noundef nonnull @.str.6, ptr noundef %13, i32 noundef %14) #14
  tail call void @abort() #15
  unreachable

16:                                               ; preds = %1
  %17 = tail call i32 (i32, i32, ...) @fcntl(i32 noundef %4, i32 noundef 4, i32 noundef 2048)
  br label %18

18:                                               ; preds = %7, %16
  ret void
}